; ModuleID = '12/98.c'
source_filename = "12/98.c"
target datalayout = "e-m:e-p270:32:32-p271:32:32-p272:64:64-i64:64-f80:128-n8:16:32:64-S128"
target triple = "x86_64-pc-linux-gnu"

@.str = private unnamed_addr constant [3 x i8] c"%d\00", align 1
@.str.1 = private unnamed_addr constant [4 x i8] c"%d\0A\00", align 1

; Function Attrs: noinline nounwind uwtable
define dso_local i32 @main() #0 {
  %1 = alloca i32, align 4
  %2 = alloca [20 x i32], align 16
  %3 = alloca i32, align 4
  %4 = alloca i32, align 4
  %5 = alloca i32, align 4
  %6 = alloca i32, align 4
  %7 = alloca i32, align 4
  store i32 0, i32* %1, align 4
  store i32 0, i32* %4, align 4
  store i32 1, i32* %5, align 4
  br label %8

8:                                                ; preds = %101, %0
  br label %9

9:                                                ; preds = %23, %8
  %10 = call i32 (i8*, ...) @__isoc99_scanf(i8* getelementptr inbounds ([3 x i8], [3 x i8]* @.str, i64 0, i64 0), i32* %3)
  %11 = load i32, i32* %3, align 4
  %12 = load i32, i32* %5, align 4
  %13 = sext i32 %12 to i64
  %14 = getelementptr inbounds [20 x i32], [20 x i32]* %2, i64 0, i64 %13
  store i32 %11, i32* %14, align 4
  %15 = load i32, i32* %5, align 4
  %16 = add nsw i32 %15, 1
  store i32 %16, i32* %5, align 4
  br label %17

17:                                               ; preds = %9
  %18 = load i32, i32* %3, align 4
  %19 = icmp ne i32 %18, 0
  br i1 %19, label %20, label %23

20:                                               ; preds = %17
  %21 = load i32, i32* %3, align 4
  %22 = icmp ne i32 %21, -1
  br label %23

23:                                               ; preds = %20, %17
  %24 = phi i1 [ false, %17 ], [ %22, %20 ]
  br i1 %24, label %9, label %25

25:                                               ; preds = %23
  store i32 1, i32* %6, align 4
  br label %26

26:                                               ; preds = %91, %25
  %27 = load i32, i32* %6, align 4
  %28 = load i32, i32* %5, align 4
  %29 = sub nsw i32 %28, 2
  %30 = icmp slt i32 %27, %29
  br i1 %30, label %31, label %94

31:                                               ; preds = %26
  %32 = load i32, i32* %6, align 4
  %33 = add nsw i32 %32, 1
  store i32 %33, i32* %7, align 4
  br label %34

34:                                               ; preds = %87, %31
  %35 = load i32, i32* %7, align 4
  %36 = load i32, i32* %5, align 4
  %37 = sub nsw i32 %36, 2
  %38 = icmp sle i32 %35, %37
  br i1 %38, label %39, label %90

39:                                               ; preds = %34
  %40 = load i32, i32* %6, align 4
  %41 = sext i32 %40 to i64
  %42 = getelementptr inbounds [20 x i32], [20 x i32]* %2, i64 0, i64 %41
  %43 = load i32, i32* %42, align 4
  %44 = load i32, i32* %7, align 4
  %45 = sext i32 %44 to i64
  %46 = getelementptr inbounds [20 x i32], [20 x i32]* %2, i64 0, i64 %45
  %47 = load i32, i32* %46, align 4
  %48 = sdiv i32 %43, %47
  %49 = icmp eq i32 %48, 2
  br i1 %49, label %50, label %61

50:                                               ; preds = %39
  %51 = load i32, i32* %6, align 4
  %52 = sext i32 %51 to i64
  %53 = getelementptr inbounds [20 x i32], [20 x i32]* %2, i64 0, i64 %52
  %54 = load i32, i32* %53, align 4
  %55 = load i32, i32* %7, align 4
  %56 = sext i32 %55 to i64
  %57 = getelementptr inbounds [20 x i32], [20 x i32]* %2, i64 0, i64 %56
  %58 = load i32, i32* %57, align 4
  %59 = srem i32 %54, %58
  %60 = icmp eq i32 %59, 0
  br i1 %60, label %83, label %61

61:                                               ; preds = %50, %39
  %62 = load i32, i32* %7, align 4
  %63 = sext i32 %62 to i64
  %64 = getelementptr inbounds [20 x i32], [20 x i32]* %2, i64 0, i64 %63
  %65 = load i32, i32* %64, align 4
  %66 = load i32, i32* %6, align 4
  %67 = sext i32 %66 to i64
  %68 = getelementptr inbounds [20 x i32], [20 x i32]* %2, i64 0, i64 %67
  %69 = load i32, i32* %68, align 4
  %70 = sdiv i32 %65, %69
  %71 = icmp eq i32 %70, 2
  br i1 %71, label %72, label %86

72:                                               ; preds = %61
  %73 = load i32, i32* %7, align 4
  %74 = sext i32 %73 to i64
  %75 = getelementptr inbounds [20 x i32], [20 x i32]* %2, i64 0, i64 %74
  %76 = load i32, i32* %75, align 4
  %77 = load i32, i32* %6, align 4
  %78 = sext i32 %77 to i64
  %79 = getelementptr inbounds [20 x i32], [20 x i32]* %2, i64 0, i64 %78
  %80 = load i32, i32* %79, align 4
  %81 = srem i32 %76, %80
  %82 = icmp eq i32 %81, 0
  br i1 %82, label %83, label %86

83:                                               ; preds = %72, %50
  %84 = load i32, i32* %4, align 4
  %85 = add nsw i32 %84, 1
  store i32 %85, i32* %4, align 4
  br label %86

86:                                               ; preds = %83, %72, %61
  br label %87

87:                                               ; preds = %86
  %88 = load i32, i32* %7, align 4
  %89 = add nsw i32 %88, 1
  store i32 %89, i32* %7, align 4
  br label %34

90:                                               ; preds = %34
  br label %91

91:                                               ; preds = %90
  %92 = load i32, i32* %6, align 4
  %93 = add nsw i32 %92, 1
  store i32 %93, i32* %6, align 4
  br label %26

94:                                               ; preds = %26
  %95 = load i32, i32* %3, align 4
  %96 = icmp ne i32 %95, -1
  br i1 %96, label %97, label %100

97:                                               ; preds = %94
  %98 = load i32, i32* %4, align 4
  %99 = call i32 (i8*, ...) @printf(i8* getelementptr inbounds ([4 x i8], [4 x i8]* @.str.1, i64 0, i64 0), i32 %98)
  br label %100

100:                                              ; preds = %97, %94
  store i32 1, i32* %5, align 4
  store i32 0, i32* %4, align 4
  br label %101

101:                                              ; preds = %100
  %102 = load i32, i32* %3, align 4
  %103 = icmp ne i32 %102, -1
  br i1 %103, label %8, label %104

104:                                              ; preds = %101
  ret i32 0
}

declare dso_local i32 @__isoc99_scanf(i8*, ...) #1

declare dso_local i32 @printf(i8*, ...) #1


!llvm.module.flags = !{!0}
!llvm.ident = !{!1}

!0 = !{i32 1, !"wchar_size", i32 4}
!1 = !{!"clang version 10.0.0-4ubuntu1 "}
